target datalayout = "e-m:e-p270:32:32-p271:32:32-p272:64:64-i64:64-i128:128-f80:128-n8:16:32:64-S128"
target triple = "x86_64-pc-linux-gnu"

%"class.OpenColorIO_v2_5dev::IndexMapping" = type { ptr, i64, [3 x %"class.std::vector"] }
%"class.std::vector" = type { %"struct.std::_Vector_base" }
%"struct.std::_Vector_base" = type { %"struct.std::_Vector_base<std::pair<float, float>, std::allocator<std::pair<float, float>>>::_Vector_impl" }
%"struct.std::_Vector_base<std::pair<float, float>, std::allocator<std::pair<float, float>>>::_Vector_impl" = type { %"struct.std::_Vector_base<std::pair<float, float>, std::allocator<std::pair<float, float>>>::_Vector_impl_data" }
%"struct.std::_Vector_base<std::pair<float, float>, std::allocator<std::pair<float, float>>>::_Vector_impl_data" = type { ptr, ptr, ptr }
%"struct.std::pair" = type { float, float }
%"class.__gnu_cxx::__normal_iterator.5" = type { ptr }

; Function Attrs: inlinehint mustprogress nounwind uwtable
define linkonce_odr noundef zeroext i1 @_ZSteqIffEbRKSt4pairIT_T0_ES5_(ptr noundef nonnull align 4 dereferenceable(8) %0, ptr noundef nonnull align 4 dereferenceable(8) %1) #8 comdat {
  %3 = alloca ptr, align 8
  %4 = alloca ptr, align 8
  store ptr %0, ptr %3, align 8, !tbaa !60
  store ptr %1, ptr %4, align 8, !tbaa !60
  %5 = load ptr, ptr %3, align 8, !tbaa !60
  %6 = getelementptr inbounds nuw %"struct.std::pair", ptr %5, i32 0, i32 0
  %7 = load float, ptr %6, align 4, !tbaa !30
  %8 = load ptr, ptr %4, align 8, !tbaa !60
  %9 = getelementptr inbounds nuw %"struct.std::pair", ptr %8, i32 0, i32 0
  %10 = load float, ptr %9, align 4, !tbaa !30
  %11 = fcmp oeq float %7, %10
  br i1 %11, label %12, label %20

12:                                               ; preds = %2
  %13 = load ptr, ptr %3, align 8, !tbaa !60
  %14 = getelementptr inbounds nuw %"struct.std::pair", ptr %13, i32 0, i32 1
  %15 = load float, ptr %14, align 4, !tbaa !34
  %16 = load ptr, ptr %4, align 8, !tbaa !60
  %17 = getelementptr inbounds nuw %"struct.std::pair", ptr %16, i32 0, i32 1
  %18 = load float, ptr %17, align 4, !tbaa !34
  %19 = fcmp oeq float %15, %18
  br label %20

20:                                               ; preds = %12, %2
  %21 = phi i1 [ false, %2 ], [ %19, %12 ]
  ret i1 %21
}

; Function Attrs: mustprogress uwtable
define linkonce_odr hidden noundef zeroext i1 @_ZNSt7__equalILb0EE5equalIPKSt4pairIffES5_EEbT_S6_T0_(ptr noundef %0, ptr noundef %1, ptr noundef %2) #0 comdat align 2 {
  %4 = alloca i1, align 1
  %5 = alloca ptr, align 8
  %6 = alloca ptr, align 8
  %7 = alloca ptr, align 8
  store ptr %0, ptr %5, align 8, !tbaa !60
  store ptr %1, ptr %6, align 8, !tbaa !60
  store ptr %2, ptr %7, align 8, !tbaa !60
  br label %8

8:                                                ; preds = %18, %3
  %9 = load ptr, ptr %5, align 8, !tbaa !60
  %10 = load ptr, ptr %6, align 8, !tbaa !60
  %11 = icmp ne ptr %9, %10
  br i1 %11, label %12, label %23

12:                                               ; preds = %8
  %13 = load ptr, ptr %5, align 8, !tbaa !60
  %14 = load ptr, ptr %7, align 8, !tbaa !60
  %15 = call noundef zeroext i1 @_ZSteqIffEbRKSt4pairIT_T0_ES5_(ptr noundef nonnull align 4 dereferenceable(8) %13, ptr noundef nonnull align 4 dereferenceable(8) %14)
  br i1 %15, label %17, label %16

16:                                               ; preds = %12
  store i1 false, ptr %4, align 1
  br label %24

17:                                               ; preds = %12
  br label %18

18:                                               ; preds = %17
  %19 = load ptr, ptr %5, align 8, !tbaa !60
  %20 = getelementptr inbounds nuw %"struct.std::pair", ptr %19, i32 1
  store ptr %20, ptr %5, align 8, !tbaa !60
  %21 = load ptr, ptr %7, align 8, !tbaa !60
  %22 = getelementptr inbounds nuw %"struct.std::pair", ptr %21, i32 1
  store ptr %22, ptr %7, align 8, !tbaa !60
  br label %8, !llvm.loop !124

23:                                               ; preds = %8
  store i1 true, ptr %4, align 1
  br label %24

24:                                               ; preds = %23, %16
  %25 = load i1, ptr %4, align 1
  ret i1 %25
}

; Function Attrs: mustprogress nounwind uwtable
define linkonce_odr hidden noundef nonnull align 8 dereferenceable(8) ptr @_ZNK9__gnu_cxx17__normal_iteratorIPKSt4pairIffESt6vectorIS2_SaIS2_EEE4baseEv(ptr noundef nonnull align 8 dereferenceable(8) %0) #1 comdat align 2 {
  %2 = alloca ptr, align 8
  store ptr %0, ptr %2, align 8, !tbaa !125
  %3 = load ptr, ptr %2, align 8
  %4 = getelementptr inbounds nuw %"class.__gnu_cxx::__normal_iterator.5", ptr %3, i32 0, i32 0
  ret ptr %4
}

; Function Attrs: inlinehint mustprogress uwtable
define linkonce_odr noundef zeroext i1 @_ZSt12__equal_aux1IPKSt4pairIffES3_EbT_S4_T0_(ptr noundef %0, ptr noundef %1, ptr noundef %2) #4 comdat {
  %4 = alloca ptr, align 8
  %5 = alloca ptr, align 8
  %6 = alloca ptr, align 8
  %7 = alloca i8, align 1
  store ptr %0, ptr %4, align 8, !tbaa !60
  store ptr %1, ptr %5, align 8, !tbaa !60
  store ptr %2, ptr %6, align 8, !tbaa !60
  call void @llvm.lifetime.start.p0(i64 1, ptr %7) #14
  store i8 0, ptr %7, align 1, !tbaa !63
  %8 = load ptr, ptr %4, align 8, !tbaa !60
  %9 = load ptr, ptr %5, align 8, !tbaa !60
  %10 = load ptr, ptr %6, align 8, !tbaa !60
  %11 = call noundef zeroext i1 @_ZNSt7__equalILb0EE5equalIPKSt4pairIffES5_EEbT_S6_T0_(ptr noundef %8, ptr noundef %9, ptr noundef %10)
  call void @llvm.lifetime.end.p0(i64 1, ptr %7) #14
  ret i1 %11
}

; Function Attrs: mustprogress nounwind uwtable
define linkonce_odr noundef ptr @_ZSt12__niter_baseIPKSt4pairIffESt6vectorIS1_SaIS1_EEET_N9__gnu_cxx17__normal_iteratorIS7_T0_EE(ptr %0) #1 comdat {
  %2 = alloca %"class.__gnu_cxx::__normal_iterator.5", align 8
  %3 = getelementptr inbounds nuw %"class.__gnu_cxx::__normal_iterator.5", ptr %2, i32 0, i32 0
  store ptr %0, ptr %3, align 8
  %4 = call noundef nonnull align 8 dereferenceable(8) ptr @_ZNK9__gnu_cxx17__normal_iteratorIPKSt4pairIffESt6vectorIS2_SaIS2_EEE4baseEv(ptr noundef nonnull align 8 dereferenceable(8) %2) #14
  %5 = load ptr, ptr %4, align 8, !tbaa !60
  ret ptr %5
}

; Function Attrs: inlinehint mustprogress uwtable
define linkonce_odr noundef zeroext i1 @_ZSt11__equal_auxIN9__gnu_cxx17__normal_iteratorIPKSt4pairIffESt6vectorIS3_SaIS3_EEEES9_EbT_SA_T0_(ptr %0, ptr %1, ptr %2) #4 comdat {
  %4 = alloca %"class.__gnu_cxx::__normal_iterator.5", align 8
  %5 = alloca %"class.__gnu_cxx::__normal_iterator.5", align 8
  %6 = alloca %"class.__gnu_cxx::__normal_iterator.5", align 8
  %7 = alloca %"class.__gnu_cxx::__normal_iterator.5", align 8
  %8 = alloca %"class.__gnu_cxx::__normal_iterator.5", align 8
  %9 = alloca %"class.__gnu_cxx::__normal_iterator.5", align 8
  %10 = getelementptr inbounds nuw %"class.__gnu_cxx::__normal_iterator.5", ptr %4, i32 0, i32 0
  store ptr %0, ptr %10, align 8
  %11 = getelementptr inbounds nuw %"class.__gnu_cxx::__normal_iterator.5", ptr %5, i32 0, i32 0
  store ptr %1, ptr %11, align 8
  %12 = getelementptr inbounds nuw %"class.__gnu_cxx::__normal_iterator.5", ptr %6, i32 0, i32 0
  store ptr %2, ptr %12, align 8
  call void @llvm.memcpy.p0.p0.i64(ptr align 8 %7, ptr align 8 %4, i64 8, i1 false), !tbaa.struct !123
  %13 = getelementptr inbounds nuw %"class.__gnu_cxx::__normal_iterator.5", ptr %7, i32 0, i32 0
  %14 = load ptr, ptr %13, align 8
  %15 = call noundef ptr @_ZSt12__niter_baseIPKSt4pairIffESt6vectorIS1_SaIS1_EEET_N9__gnu_cxx17__normal_iteratorIS7_T0_EE(ptr %14) #14
  call void @llvm.memcpy.p0.p0.i64(ptr align 8 %8, ptr align 8 %5, i64 8, i1 false), !tbaa.struct !123
  %16 = getelementptr inbounds nuw %"class.__gnu_cxx::__normal_iterator.5", ptr %8, i32 0, i32 0
  %17 = load ptr, ptr %16, align 8
  %18 = call noundef ptr @_ZSt12__niter_baseIPKSt4pairIffESt6vectorIS1_SaIS1_EEET_N9__gnu_cxx17__normal_iteratorIS7_T0_EE(ptr %17) #14
  call void @llvm.memcpy.p0.p0.i64(ptr align 8 %9, ptr align 8 %6, i64 8, i1 false), !tbaa.struct !123
  %19 = getelementptr inbounds nuw %"class.__gnu_cxx::__normal_iterator.5", ptr %9, i32 0, i32 0
  %20 = load ptr, ptr %19, align 8
  %21 = call noundef ptr @_ZSt12__niter_baseIPKSt4pairIffESt6vectorIS1_SaIS1_EEET_N9__gnu_cxx17__normal_iteratorIS7_T0_EE(ptr %20) #14
  %22 = call noundef zeroext i1 @_ZSt12__equal_aux1IPKSt4pairIffES3_EbT_S4_T0_(ptr noundef %15, ptr noundef %18, ptr noundef %21)
  ret i1 %22
}

; Function Attrs: mustprogress nounwind uwtable
define linkonce_odr hidden void @_ZN9__gnu_cxx17__normal_iteratorIPKSt4pairIffESt6vectorIS2_SaIS2_EEEC2ERKS4_(ptr noundef nonnull align 8 dereferenceable(8) %0, ptr noundef nonnull align 8 dereferenceable(8) %1) unnamed_addr #1 comdat align 2 {
  %3 = alloca ptr, align 8
  %4 = alloca ptr, align 8
  store ptr %0, ptr %3, align 8, !tbaa !125
  store ptr %1, ptr %4, align 8, !tbaa !127
  %5 = load ptr, ptr %3, align 8
  %6 = getelementptr inbounds nuw %"class.__gnu_cxx::__normal_iterator.5", ptr %5, i32 0, i32 0
  %7 = load ptr, ptr %4, align 8, !tbaa !127
  %8 = load ptr, ptr %7, align 8, !tbaa !60
  store ptr %8, ptr %6, align 8, !tbaa !129
  ret void
}

; Function Attrs: inlinehint mustprogress uwtable
define linkonce_odr noundef zeroext i1 @_ZSt5equalIN9__gnu_cxx17__normal_iteratorIPKSt4pairIffESt6vectorIS3_SaIS3_EEEES9_EbT_SA_T0_(ptr %0, ptr %1, ptr %2) #4 comdat {
  %4 = alloca %"class.__gnu_cxx::__normal_iterator.5", align 8
  %5 = alloca %"class.__gnu_cxx::__normal_iterator.5", align 8
  %6 = alloca %"class.__gnu_cxx::__normal_iterator.5", align 8
  %7 = alloca %"class.__gnu_cxx::__normal_iterator.5", align 8
  %8 = alloca %"class.__gnu_cxx::__normal_iterator.5", align 8
  %9 = alloca %"class.__gnu_cxx::__normal_iterator.5", align 8
  %10 = getelementptr inbounds nuw %"class.__gnu_cxx::__normal_iterator.5", ptr %4, i32 0, i32 0
  store ptr %0, ptr %10, align 8
  %11 = getelementptr inbounds nuw %"class.__gnu_cxx::__normal_iterator.5", ptr %5, i32 0, i32 0
  store ptr %1, ptr %11, align 8
  %12 = getelementptr inbounds nuw %"class.__gnu_cxx::__normal_iterator.5", ptr %6, i32 0, i32 0
  store ptr %2, ptr %12, align 8
  call void @llvm.memcpy.p0.p0.i64(ptr align 8 %7, ptr align 8 %4, i64 8, i1 false), !tbaa.struct !123
  call void @llvm.memcpy.p0.p0.i64(ptr align 8 %8, ptr align 8 %5, i64 8, i1 false), !tbaa.struct !123
  call void @llvm.memcpy.p0.p0.i64(ptr align 8 %9, ptr align 8 %6, i64 8, i1 false), !tbaa.struct !123
  %13 = getelementptr inbounds nuw %"class.__gnu_cxx::__normal_iterator.5", ptr %7, i32 0, i32 0
  %14 = load ptr, ptr %13, align 8
  %15 = getelementptr inbounds nuw %"class.__gnu_cxx::__normal_iterator.5", ptr %8, i32 0, i32 0
  %16 = load ptr, ptr %15, align 8
  %17 = getelementptr inbounds nuw %"class.__gnu_cxx::__normal_iterator.5", ptr %9, i32 0, i32 0
  %18 = load ptr, ptr %17, align 8
  %19 = call noundef zeroext i1 @_ZSt11__equal_auxIN9__gnu_cxx17__normal_iteratorIPKSt4pairIffESt6vectorIS3_SaIS3_EEEES9_EbT_SA_T0_(ptr %14, ptr %16, ptr %18)
  ret i1 %19
}

; Function Attrs: mustprogress nounwind uwtable
define linkonce_odr hidden ptr @_ZNKSt6vectorISt4pairIffESaIS1_EE3endEv(ptr noundef nonnull align 8 dereferenceable(24) %0) #1 comdat align 2 {
  %2 = alloca %"class.__gnu_cxx::__normal_iterator.5", align 8
  %3 = alloca ptr, align 8
  store ptr %0, ptr %3, align 8, !tbaa !14
  %4 = load ptr, ptr %3, align 8
  %5 = getelementptr inbounds nuw %"struct.std::_Vector_base", ptr %4, i32 0, i32 0
  %6 = getelementptr inbounds nuw %"struct.std::_Vector_base<std::pair<float, float>, std::allocator<std::pair<float, float>>>::_Vector_impl_data", ptr %5, i32 0, i32 1
  call void @_ZN9__gnu_cxx17__normal_iteratorIPKSt4pairIffESt6vectorIS2_SaIS2_EEEC2ERKS4_(ptr noundef nonnull align 8 dereferenceable(8) %2, ptr noundef nonnull align 8 dereferenceable(8) %6) #14
  %7 = getelementptr inbounds nuw %"class.__gnu_cxx::__normal_iterator.5", ptr %2, i32 0, i32 0
  %8 = load ptr, ptr %7, align 8
  ret ptr %8
}

; Function Attrs: mustprogress nounwind uwtable
define linkonce_odr hidden ptr @_ZNKSt6vectorISt4pairIffESaIS1_EE5beginEv(ptr noundef nonnull align 8 dereferenceable(24) %0) #1 comdat align 2 {
  %2 = alloca %"class.__gnu_cxx::__normal_iterator.5", align 8
  %3 = alloca ptr, align 8
  store ptr %0, ptr %3, align 8, !tbaa !14
  %4 = load ptr, ptr %3, align 8
  %5 = getelementptr inbounds nuw %"struct.std::_Vector_base", ptr %4, i32 0, i32 0
  %6 = getelementptr inbounds nuw %"struct.std::_Vector_base<std::pair<float, float>, std::allocator<std::pair<float, float>>>::_Vector_impl_data", ptr %5, i32 0, i32 0
  call void @_ZN9__gnu_cxx17__normal_iteratorIPKSt4pairIffESt6vectorIS2_SaIS2_EEEC2ERKS4_(ptr noundef nonnull align 8 dereferenceable(8) %2, ptr noundef nonnull align 8 dereferenceable(8) %6) #14
  %7 = getelementptr inbounds nuw %"class.__gnu_cxx::__normal_iterator.5", ptr %2, i32 0, i32 0
  %8 = load ptr, ptr %7, align 8
  ret ptr %8
}

; Function Attrs: mustprogress nounwind uwtable
define linkonce_odr hidden noundef i64 @_ZNKSt6vectorISt4pairIffESaIS1_EE4sizeEv(ptr noundef nonnull align 8 dereferenceable(24) %0) #1 comdat align 2 {
  %2 = alloca ptr, align 8
  store ptr %0, ptr %2, align 8, !tbaa !14
  %3 = load ptr, ptr %2, align 8
  %4 = getelementptr inbounds nuw %"struct.std::_Vector_base", ptr %3, i32 0, i32 0
  %5 = getelementptr inbounds nuw %"struct.std::_Vector_base<std::pair<float, float>, std::allocator<std::pair<float, float>>>::_Vector_impl_data", ptr %4, i32 0, i32 1
  %6 = load ptr, ptr %5, align 8, !tbaa !19
  %7 = getelementptr inbounds nuw %"struct.std::_Vector_base", ptr %3, i32 0, i32 0
  %8 = getelementptr inbounds nuw %"struct.std::_Vector_base<std::pair<float, float>, std::allocator<std::pair<float, float>>>::_Vector_impl_data", ptr %7, i32 0, i32 0
  %9 = load ptr, ptr %8, align 8, !tbaa !16
  %10 = ptrtoint ptr %6 to i64
  %11 = ptrtoint ptr %9 to i64
  %12 = sub i64 %10, %11
  %13 = sdiv exact i64 %12, 8
  ret i64 %13
}

; Function Attrs: inlinehint mustprogress uwtable
define linkonce_odr noundef zeroext i1 @_ZSteqISt4pairIffESaIS1_EEbRKSt6vectorIT_T0_ES8_(ptr noundef nonnull align 8 dereferenceable(24) %0, ptr noundef nonnull align 8 dereferenceable(24) %1) #4 comdat {
  %3 = alloca ptr, align 8
  %4 = alloca ptr, align 8
  %5 = alloca %"class.__gnu_cxx::__normal_iterator.5", align 8
  %6 = alloca %"class.__gnu_cxx::__normal_iterator.5", align 8
  %7 = alloca %"class.__gnu_cxx::__normal_iterator.5", align 8
  store ptr %0, ptr %3, align 8, !tbaa !14
  store ptr %1, ptr %4, align 8, !tbaa !14
  %8 = load ptr, ptr %3, align 8, !tbaa !14
  %9 = call noundef i64 @_ZNKSt6vectorISt4pairIffESaIS1_EE4sizeEv(ptr noundef nonnull align 8 dereferenceable(24) %8) #14
  %10 = load ptr, ptr %4, align 8, !tbaa !14
  %11 = call noundef i64 @_ZNKSt6vectorISt4pairIffESaIS1_EE4sizeEv(ptr noundef nonnull align 8 dereferenceable(24) %10) #14
  %12 = icmp eq i64 %9, %11
  br i1 %12, label %13, label %30

13:                                               ; preds = %2
  %14 = load ptr, ptr %3, align 8, !tbaa !14
  %15 = call ptr @_ZNKSt6vectorISt4pairIffESaIS1_EE5beginEv(ptr noundef nonnull align 8 dereferenceable(24) %14) #14
  %16 = getelementptr inbounds nuw %"class.__gnu_cxx::__normal_iterator.5", ptr %5, i32 0, i32 0
  store ptr %15, ptr %16, align 8
  %17 = load ptr, ptr %3, align 8, !tbaa !14
  %18 = call ptr @_ZNKSt6vectorISt4pairIffESaIS1_EE3endEv(ptr noundef nonnull align 8 dereferenceable(24) %17) #14
  %19 = getelementptr inbounds nuw %"class.__gnu_cxx::__normal_iterator.5", ptr %6, i32 0, i32 0
  store ptr %18, ptr %19, align 8
  %20 = load ptr, ptr %4, align 8, !tbaa !14
  %21 = call ptr @_ZNKSt6vectorISt4pairIffESaIS1_EE5beginEv(ptr noundef nonnull align 8 dereferenceable(24) %20) #14
  %22 = getelementptr inbounds nuw %"class.__gnu_cxx::__normal_iterator.5", ptr %7, i32 0, i32 0
  store ptr %21, ptr %22, align 8
  %23 = getelementptr inbounds nuw %"class.__gnu_cxx::__normal_iterator.5", ptr %5, i32 0, i32 0
  %24 = load ptr, ptr %23, align 8
  %25 = getelementptr inbounds nuw %"class.__gnu_cxx::__normal_iterator.5", ptr %6, i32 0, i32 0
  %26 = load ptr, ptr %25, align 8
  %27 = getelementptr inbounds nuw %"class.__gnu_cxx::__normal_iterator.5", ptr %7, i32 0, i32 0
  %28 = load ptr, ptr %27, align 8
  %29 = call noundef zeroext i1 @_ZSt5equalIN9__gnu_cxx17__normal_iteratorIPKSt4pairIffESt6vectorIS3_SaIS3_EEEES9_EbT_SA_T0_(ptr %24, ptr %26, ptr %28)
  br label %30

30:                                               ; preds = %13, %2
  %31 = phi i1 [ false, %2 ], [ %29, %13 ]
  ret i1 %31
}

; Function Attrs: inlinehint mustprogress uwtable
define linkonce_odr noundef zeroext i1 @_ZStneISt4pairIffESaIS1_EEbRKSt6vectorIT_T0_ES8_(ptr noundef nonnull align 8 dereferenceable(24) %0, ptr noundef nonnull align 8 dereferenceable(24) %1) #4 comdat {
  %3 = alloca ptr, align 8
  %4 = alloca ptr, align 8
  store ptr %0, ptr %3, align 8, !tbaa !14
  store ptr %1, ptr %4, align 8, !tbaa !14
  %5 = load ptr, ptr %3, align 8, !tbaa !14
  %6 = load ptr, ptr %4, align 8, !tbaa !14
  %7 = call noundef zeroext i1 @_ZSteqISt4pairIffESaIS1_EEbRKSt6vectorIT_T0_ES8_(ptr noundef nonnull align 8 dereferenceable(24) %5, ptr noundef nonnull align 8 dereferenceable(24) %6)
  %8 = xor i1 %7, true
  ret i1 %8
}

; Function Attrs: mustprogress nounwind uwtable
define hidden noundef i32 @_ZNK19OpenColorIO_v2_5dev12IndexMapping16getNumComponentsEv(ptr noundef nonnull align 8 dereferenceable(88) %0) #1 align 2 {
  %2 = alloca ptr, align 8
  store ptr %0, ptr %2, align 8, !tbaa !3
  ret i32 3
}

; Function Attrs: mustprogress uwtable
define hidden noundef zeroext i1 @_ZNK19OpenColorIO_v2_5dev12IndexMappingeqERKS0_(ptr noundef nonnull align 8 dereferenceable(88) %0, ptr noundef nonnull align 8 dereferenceable(88) %1) #0 align 2 {
  %3 = alloca i1, align 1
  %4 = alloca ptr, align 8
  %5 = alloca ptr, align 8
  %6 = alloca i32, align 4
  %7 = alloca i32, align 4
  store ptr %0, ptr %4, align 8, !tbaa !3
  store ptr %1, ptr %5, align 8, !tbaa !3
  %8 = load ptr, ptr %4, align 8
  %9 = load ptr, ptr %5, align 8, !tbaa !3
  %10 = icmp eq ptr %8, %9
  br i1 %10, label %11, label %12

11:                                               ; preds = %2
  store i1 true, ptr %3, align 1
  br label %45

12:                                               ; preds = %2
  %13 = getelementptr inbounds nuw %"class.OpenColorIO_v2_5dev::IndexMapping", ptr %8, i32 0, i32 1
  %14 = load i64, ptr %13, align 8, !tbaa !12
  %15 = load ptr, ptr %5, align 8, !tbaa !3
  %16 = getelementptr inbounds nuw %"class.OpenColorIO_v2_5dev::IndexMapping", ptr %15, i32 0, i32 1
  %17 = load i64, ptr %16, align 8, !tbaa !12
  %18 = icmp ne i64 %14, %17
  br i1 %18, label %19, label %20

19:                                               ; preds = %12
  store i1 false, ptr %3, align 1
  br label %45

20:                                               ; preds = %12
  call void @llvm.lifetime.start.p0(i64 4, ptr %6) #14
  store i32 0, ptr %6, align 4, !tbaa !35
  br label %21

21:                                               ; preds = %39, %20
  %22 = load i32, ptr %6, align 4, !tbaa !35
  %23 = call noundef i32 @_ZNK19OpenColorIO_v2_5dev12IndexMapping16getNumComponentsEv(ptr noundef nonnull align 8 dereferenceable(88) %8)
  %24 = icmp ult i32 %22, %23
  br i1 %24, label %26, label %25

25:                                               ; preds = %21
  store i32 2, ptr %7, align 4
  br label %42

26:                                               ; preds = %21
  %27 = getelementptr inbounds nuw %"class.OpenColorIO_v2_5dev::IndexMapping", ptr %8, i32 0, i32 2
  %28 = load i32, ptr %6, align 4, !tbaa !35
  %29 = zext i32 %28 to i64
  %30 = getelementptr inbounds nuw [3 x %"class.std::vector"], ptr %27, i64 0, i64 %29
  %31 = load ptr, ptr %5, align 8, !tbaa !3
  %32 = getelementptr inbounds nuw %"class.OpenColorIO_v2_5dev::IndexMapping", ptr %31, i32 0, i32 2
  %33 = load i32, ptr %6, align 4, !tbaa !35
  %34 = zext i32 %33 to i64
  %35 = getelementptr inbounds nuw [3 x %"class.std::vector"], ptr %32, i64 0, i64 %34
  %36 = call noundef zeroext i1 @_ZStneISt4pairIffESaIS1_EEbRKSt6vectorIT_T0_ES8_(ptr noundef nonnull align 8 dereferenceable(24) %30, ptr noundef nonnull align 8 dereferenceable(24) %35)
  br i1 %36, label %37, label %38

37:                                               ; preds = %26
  store i1 false, ptr %3, align 1
  store i32 1, ptr %7, align 4
  br label %42

38:                                               ; preds = %26
  br label %39

39:                                               ; preds = %38
  %40 = load i32, ptr %6, align 4, !tbaa !35
  %41 = add i32 %40, 1
  store i32 %41, ptr %6, align 4, !tbaa !35
  br label %21, !llvm.loop !39

42:                                               ; preds = %37, %25
  call void @llvm.lifetime.end.p0(i64 4, ptr %6) #14
  %43 = load i32, ptr %7, align 4
  switch i32 %43, label %47 [
    i32 2, label %44
    i32 1, label %45
  ]

44:                                               ; preds = %42
  store i1 true, ptr %3, align 1
  br label %45

45:                                               ; preds = %44, %42, %19, %11
  %46 = load i1, ptr %3, align 1
  ret i1 %46

47:                                               ; preds = %42
  unreachable
}