; Function Attrs: mustprogress nofree norecurse nosync nounwind willreturn memory(read, inaccessiblemem: none) uwtable
define hidden noundef zeroext i1 @_ZNK19OpenColorIO_v2_5dev12IndexMappingeqERKS0_(ptr noundef nonnull readonly align 8 dereferenceable(88) %0, ptr noundef nonnull readonly align 8 dereferenceable(88) %1) local_unnamed_addr #9 align 2 {
  %3 = icmp eq ptr %0, %1
  br i1 %3, label %_ZStneISt4pairIffESaIS1_EEbRKSt6vectorIT_T0_ES8_.exit.thread, label %4

4:                                                ; preds = %2
  %5 = getelementptr inbounds nuw i8, ptr %0, i64 8
  %6 = load i64, ptr %5, align 8, !tbaa !6
  %7 = getelementptr inbounds nuw i8, ptr %1, i64 8
  %8 = load i64, ptr %7, align 8, !tbaa !6
  %.not = icmp eq i64 %6, %8
  br i1 %.not, label %.preheader, label %_ZStneISt4pairIffESaIS1_EEbRKSt6vectorIT_T0_ES8_.exit.thread

.preheader:                                       ; preds = %4
  %9 = getelementptr inbounds nuw i8, ptr %0, i64 16
  %10 = getelementptr inbounds nuw i8, ptr %1, i64 16
  br label %11

11:                                               ; preds = %.preheader, %_ZStneISt4pairIffESaIS1_EEbRKSt6vectorIT_T0_ES8_.exit
  %indvars.iv = phi i64 [ 0, %.preheader ], [ %indvars.iv.next, %_ZStneISt4pairIffESaIS1_EEbRKSt6vectorIT_T0_ES8_.exit ]
  %12 = getelementptr inbounds nuw [3 x %"class.std::vector"], ptr %9, i64 0, i64 %indvars.iv
  %13 = getelementptr inbounds nuw [3 x %"class.std::vector"], ptr %10, i64 0, i64 %indvars.iv
  %14 = getelementptr inbounds nuw i8, ptr %12, i64 8
  %15 = load ptr, ptr %14, align 8, !tbaa !15
  %16 = load ptr, ptr %12, align 8, !tbaa !10
  %17 = ptrtoint ptr %15 to i64
  %18 = ptrtoint ptr %16 to i64
  %19 = sub i64 %17, %18
  %20 = getelementptr inbounds nuw i8, ptr %13, i64 8
  %21 = load ptr, ptr %20, align 8, !tbaa !15
  %22 = load ptr, ptr %13, align 8, !tbaa !10
  %23 = ptrtoint ptr %21 to i64
  %24 = ptrtoint ptr %22 to i64
  %25 = sub i64 %23, %24
  %26 = icmp eq i64 %19, %25
  br i1 %26, label %27, label %_ZStneISt4pairIffESaIS1_EEbRKSt6vectorIT_T0_ES8_.exit.thread

27:                                               ; preds = %11
  %.not9.i.i.i.i.i.i = icmp eq ptr %16, %15
  br i1 %.not9.i.i.i.i.i.i, label %_ZStneISt4pairIffESaIS1_EEbRKSt6vectorIT_T0_ES8_.exit, label %.lr.ph.i.i.i.i.i.i

.lr.ph.i.i.i.i.i.i:                               ; preds = %27, %36
  %.011.i.i.i.i.i.i = phi ptr [ %38, %36 ], [ %22, %27 ]
  %.0810.i.i.i.i.i.i = phi ptr [ %37, %36 ], [ %16, %27 ]
  %28 = load float, ptr %.0810.i.i.i.i.i.i, align 4, !tbaa !31
  %29 = load float, ptr %.011.i.i.i.i.i.i, align 4, !tbaa !31
  %30 = fcmp une float %28, %29
  %31 = getelementptr inbounds nuw i8, ptr %.0810.i.i.i.i.i.i, i64 4
  %32 = load float, ptr %31, align 4
  %33 = getelementptr inbounds nuw i8, ptr %.011.i.i.i.i.i.i, i64 4
  %34 = load float, ptr %33, align 4
  %35 = fcmp une float %32, %34
  %.not3.i = select i1 %30, i1 true, i1 %35
  br i1 %.not3.i, label %_ZStneISt4pairIffESaIS1_EEbRKSt6vectorIT_T0_ES8_.exit.thread, label %36

36:                                               ; preds = %.lr.ph.i.i.i.i.i.i
  %37 = getelementptr inbounds nuw i8, ptr %.0810.i.i.i.i.i.i, i64 8
  %38 = getelementptr inbounds nuw i8, ptr %.011.i.i.i.i.i.i, i64 8
  %.not.i.i.i.i.i.i = icmp eq ptr %37, %15
  br i1 %.not.i.i.i.i.i.i, label %_ZStneISt4pairIffESaIS1_EEbRKSt6vectorIT_T0_ES8_.exit, label %.lr.ph.i.i.i.i.i.i, !llvm.loop !35

_ZStneISt4pairIffESaIS1_EEbRKSt6vectorIT_T0_ES8_.exit: ; preds = %36, %27
  %indvars.iv.next = add nuw nsw i64 %indvars.iv, 1
  %exitcond = icmp eq i64 %indvars.iv.next, 3
  br i1 %exitcond, label %_ZStneISt4pairIffESaIS1_EEbRKSt6vectorIT_T0_ES8_.exit.thread, label %11, !llvm.loop !36

_ZStneISt4pairIffESaIS1_EEbRKSt6vectorIT_T0_ES8_.exit.thread: ; preds = %_ZStneISt4pairIffESaIS1_EEbRKSt6vectorIT_T0_ES8_.exit, %11, %.lr.ph.i.i.i.i.i.i, %4, %2
  %.010 = phi i1 [ true, %2 ], [ false, %4 ], [ false, %.lr.ph.i.i.i.i.i.i ], [ %26, %11 ], [ %26, %_ZStneISt4pairIffESaIS1_EEbRKSt6vectorIT_T0_ES8_.exit ]
  ret i1 %.010
}